target datalayout = "e-m:e-p270:32:32-p271:32:32-p272:64:64-i64:64-i128:128-f80:128-n8:16:32:64-S128"
target triple = "x86_64-pc-linux-gnu"

%struct.sharedObjectsStruct = type { ptr, ptr, ptr, ptr, ptr, ptr, ptr, ptr, [4 x ptr], [4 x ptr], [4 x ptr], [4 x ptr], ptr, ptr, ptr, ptr, ptr, ptr, ptr, ptr, ptr, ptr, ptr, ptr, ptr, ptr, ptr, ptr, ptr, ptr, ptr, ptr, ptr, ptr, ptr, ptr, ptr, ptr, ptr, ptr, ptr, ptr, ptr, ptr, ptr, ptr, ptr, ptr, ptr, ptr, ptr, ptr, ptr, ptr, ptr, ptr, ptr, ptr, ptr, ptr, ptr, ptr, ptr, ptr, ptr, ptr, ptr, ptr, ptr, ptr, ptr, ptr, ptr, ptr, ptr, ptr, ptr, ptr, ptr, ptr, ptr, ptr, ptr, ptr, ptr, ptr, ptr, ptr, [10 x ptr], [10000 x ptr], [32 x ptr], [32 x ptr], [32 x ptr], [32 x ptr], ptr, ptr }
%struct.redisServer = type { i32, i64, ptr, ptr, ptr, i32, i32, i32, i32, i32, ptr, ptr, ptr, ptr, ptr, i32, i32, i32, i32, i64, i32, i32, i32, i32, ptr, i32, i32, [41 x i8], i32, i64, i32, i32, i32, ptr, ptr, i32, i32, i64, ptr, ptr, ptr, ptr, [2 x i32], i32, i32, i32, i32, i32, i32, [16 x ptr], i32, ptr, ptr, i32, [8 x %struct.connListener], i32, %struct.connListener, ptr, ptr, ptr, ptr, ptr, ptr, ptr, ptr, ptr, ptr, i32, ptr, i32, ptr, [3 x %struct.pause_event], [256 x i8], ptr, i64, i32, i32, [128 x i32], i32, i32, i64, i32, i32, i32, i32, i32, i64, i64, i64, i64, i64, i64, i64, i64, i64, i64, double, i64, i64, i64, i64, i64, i64, i64, i64, i64, i64, i64, i64, i64, i64, i64, i64, i64, i64, i64, i64, i64, double, i64, i64, i64, i64, i64, ptr, i64, i64, i64, %struct.malloc_stats, i64, i64, i64, i64, i64, i64, i64, i64, i64, i64, i64, i64, double, [4 x i64], i64, i64, i64, i64, [128 x i64], [128 x i64], i64, i64, [7 x %struct.anon], i64, i64, i64, i64, i64, i64, [4 x %struct.durationStats], i32, i32, i32, i32, i32, i32, i32, i32, i32, i32, i32, i32, i64, i32, i32, i32, i32, i64, i64, i32, i32, i32, i32, i32, ptr, [3 x %struct.clientBufferLimitsConfig], i32, i32, i32, ptr, i32, i32, i32, i32, i32, i32, ptr, ptr, i32, i32, i64, i64, i64, i64, i64, i32, i32, ptr, i32, i32, i64, i64, i64, i64, i64, i32, i32, i64, i32, i32, i32, i32, i32, i32, i32, i32, ptr, i32, i64, i64, i64, i64, i32, ptr, i32, ptr, i32, i32, i32, i64, i64, i64, i64, i32, i32, i32, i32, i32, i32, ptr, i32, i32, ptr, i32, i32, i32, [2 x i32], i32, %struct.redisOpArray, i32, ptr, i32, ptr, i32, i32, i32, i32, i32, i32, i32, [41 x i8], [41 x i8], i64, i64, i64, i64, i32, i32, ptr, i64, i64, %struct.replDataBuf, i64, i64, i32, i32, i32, i32, i32, i32, i32, i32, i32, i64, ptr, i64, ptr, ptr, ptr, i32, i32, ptr, ptr, i32, i32, i32, i64, i64, i64, i64, ptr, ptr, i32, ptr, i64, i32, i32, i32, i64, i32, i32, i32, i32, ptr, i32, i32, [41 x i8], i64, i32, ptr, i32, i32, i64, i64, i32, i32, i32, i32, i32, i64, [3 x i32], i32, i32, i32, [10 x i32], ptr, ptr, i32, i64, ptr, ptr, i32, i32, i32, i32, i64, i64, i64, i64, i64, i64, i64, i64, i64, i64, i32, i32, i64, i64, i32, i64, i64, i64, i64, i64, ptr, ptr, i32, ptr, i32, i32, i32, i32, i64, i64, ptr, ptr, i32, i32, i32, i32, i32, ptr, ptr, ptr, i32, i32, i32, i32, i32, i32, i32, i64, i32, i32, i64, i32, i32, i32, i32, i32, i32, i32, i64, ptr, ptr, i64, ptr, i32, %struct.aclInfo, i32, i64, i32, i32, i32, %struct.redisTLSContextConfig, ptr, ptr, ptr, ptr, ptr, i64, i32, ptr, i32, i32, i32, i64, i32, ptr }
%struct.connListener = type { [16 x i32], i32, ptr, i32, i32, ptr, ptr }
%struct.pause_event = type { i32, i64 }
%struct.malloc_stats = type { i64, i64, i64, i64, i64, i64, i64, i64, i64, i64, i64 }
%struct.anon = type { i64, i64, [16 x i64], i32 }
%struct.durationStats = type { i64, i64, i64 }
%struct.clientBufferLimitsConfig = type { i64, i64, i64 }
%struct.redisOpArray = type { ptr, i32, i32 }
%struct.replDataBuf = type { ptr, i64, i64, i64, i64 }
%struct.aclInfo = type { i64, i64, i64, i64 }
%struct.redisTLSContextConfig = type { ptr, ptr, ptr, ptr, ptr, ptr, ptr, ptr, ptr, ptr, ptr, ptr, i32, i32, i32, i32 }
%struct.client = type { i64, i64, ptr, i8, i8, i8, i8, i32, ptr, ptr, ptr, ptr, ptr, i64, i64, i32, ptr, i32, i32, ptr, i64, ptr, ptr, ptr, ptr, ptr, i32, i32, i64, ptr, i64, ptr, i64, i64, i64, i32, ptr, i64, i64, i32, i32, i32, i32, i64, i64, ptr, i64, i64, i64, i64, i64, i64, i64, i64, [41 x i8], i32, ptr, i32, i32, i64, %struct.multiState, %struct.blockingState, i64, ptr, ptr, ptr, ptr, ptr, ptr, ptr, ptr, ptr, ptr, ptr, ptr, ptr, ptr, i64, ptr, i64, i32, ptr, ptr, ptr, i64, %struct.listNode, i64, i64, i32, i64, ptr }
%struct.multiState = type { ptr, i32, i32, i32, i64, i32 }
%struct.blockingState = type { i32, i64, i32, ptr, i32, i32, i64, ptr, ptr, i64 }
%struct.listNode = type { ptr, ptr, ptr }
%struct.redisDb = type { ptr, ptr, ptr, ptr, ptr, ptr, ptr, i32, i64, i64, ptr }

@shared = external global %struct.sharedObjectsStruct, align 8
@server = external global %struct.redisServer, align 8
@.str = private unnamed_addr constant [4 x i8] c"set\00", align 1

; Function Attrs: nounwind uwtable
define dso_local i32 @getGenericCommand(ptr noundef %0) #0 {
  %2 = alloca i32, align 4
  %3 = alloca ptr, align 8
  %4 = alloca ptr, align 8
  %5 = alloca i32, align 4
  store ptr %0, ptr %3, align 8, !tbaa !5
  call void @llvm.lifetime.start.p0(i64 8, ptr %4) #10
  %6 = load ptr, ptr %3, align 8, !tbaa !5
  %7 = load ptr, ptr %3, align 8, !tbaa !5
  %8 = getelementptr inbounds nuw %struct.client, ptr %7, i32 0, i32 16
  %9 = load ptr, ptr %8, align 8, !tbaa !63
  %10 = getelementptr inbounds ptr, ptr %9, i64 1
  %11 = load ptr, ptr %10, align 8, !tbaa !12
  %12 = load ptr, ptr %3, align 8, !tbaa !5
  %13 = getelementptr inbounds nuw %struct.client, ptr %12, i32 0, i32 7
  %14 = load i32, ptr %13, align 4, !tbaa !34
  %15 = sext i32 %14 to i64
  %16 = getelementptr inbounds [4 x ptr], ptr getelementptr inbounds nuw (%struct.sharedObjectsStruct, ptr @shared, i32 0, i32 8), i64 0, i64 %15
  %17 = load ptr, ptr %16, align 8, !tbaa !12
  %18 = call ptr @lookupKeyReadOrReply(ptr noundef %6, ptr noundef %11, ptr noundef %17)
  store ptr %18, ptr %4, align 8, !tbaa !12
  %19 = icmp eq ptr %18, null
  br i1 %19, label %20, label %21

20:                                               ; preds = %1
  store i32 0, ptr %2, align 4
  store i32 1, ptr %5, align 4
  br label %30

21:                                               ; preds = %1
  %22 = load ptr, ptr %3, align 8, !tbaa !5
  %23 = load ptr, ptr %4, align 8, !tbaa !12
  %24 = call i32 @checkType(ptr noundef %22, ptr noundef %23, i32 noundef 0)
  %25 = icmp ne i32 %24, 0
  br i1 %25, label %26, label %27

26:                                               ; preds = %21
  store i32 -1, ptr %2, align 4
  store i32 1, ptr %5, align 4
  br label %30

27:                                               ; preds = %21
  %28 = load ptr, ptr %3, align 8, !tbaa !5
  %29 = load ptr, ptr %4, align 8, !tbaa !12
  call void @addReplyBulk(ptr noundef %28, ptr noundef %29)
  store i32 0, ptr %2, align 4
  store i32 1, ptr %5, align 4
  br label %30

30:                                               ; preds = %27, %26, %20
  call void @llvm.lifetime.end.p0(i64 8, ptr %4) #10
  %31 = load i32, ptr %2, align 4
  ret i32 %31
}

; Function Attrs: nounwind uwtable
define dso_local void @getsetCommand(ptr noundef %0) #0 {
  %2 = alloca ptr, align 8
  store ptr %0, ptr %2, align 8, !tbaa !5
  %3 = load ptr, ptr %2, align 8, !tbaa !5
  %4 = call i32 @getGenericCommand(ptr noundef %3)
  %5 = icmp eq i32 %4, -1
  br i1 %5, label %6, label %7

6:                                                ; preds = %1
  br label %46

7:                                                ; preds = %1
  %8 = load ptr, ptr %2, align 8, !tbaa !5
  %9 = getelementptr inbounds nuw %struct.client, ptr %8, i32 0, i32 16
  %10 = load ptr, ptr %9, align 8, !tbaa !63
  %11 = getelementptr inbounds ptr, ptr %10, i64 2
  %12 = load ptr, ptr %11, align 8, !tbaa !12
  %13 = call ptr @tryObjectEncoding(ptr noundef %12)
  %14 = load ptr, ptr %2, align 8, !tbaa !5
  %15 = getelementptr inbounds nuw %struct.client, ptr %14, i32 0, i32 16
  %16 = load ptr, ptr %15, align 8, !tbaa !63
  %17 = getelementptr inbounds ptr, ptr %16, i64 2
  store ptr %13, ptr %17, align 8, !tbaa !12
  %18 = load ptr, ptr %2, align 8, !tbaa !5
  %19 = load ptr, ptr %2, align 8, !tbaa !5
  %20 = getelementptr inbounds nuw %struct.client, ptr %19, i32 0, i32 8
  %21 = load ptr, ptr %20, align 8, !tbaa !18
  %22 = load ptr, ptr %2, align 8, !tbaa !5
  %23 = getelementptr inbounds nuw %struct.client, ptr %22, i32 0, i32 16
  %24 = load ptr, ptr %23, align 8, !tbaa !63
  %25 = getelementptr inbounds ptr, ptr %24, i64 1
  %26 = load ptr, ptr %25, align 8, !tbaa !12
  %27 = load ptr, ptr %2, align 8, !tbaa !5
  %28 = getelementptr inbounds nuw %struct.client, ptr %27, i32 0, i32 16
  %29 = load ptr, ptr %28, align 8, !tbaa !63
  %30 = getelementptr inbounds ptr, ptr %29, i64 2
  %31 = load ptr, ptr %30, align 8, !tbaa !12
  call void @setKey(ptr noundef %18, ptr noundef %21, ptr noundef %26, ptr noundef %31, i32 noundef 0)
  %32 = load ptr, ptr %2, align 8, !tbaa !5
  %33 = getelementptr inbounds nuw %struct.client, ptr %32, i32 0, i32 16
  %34 = load ptr, ptr %33, align 8, !tbaa !63
  %35 = getelementptr inbounds ptr, ptr %34, i64 1
  %36 = load ptr, ptr %35, align 8, !tbaa !12
  %37 = load ptr, ptr %2, align 8, !tbaa !5
  %38 = getelementptr inbounds nuw %struct.client, ptr %37, i32 0, i32 8
  %39 = load ptr, ptr %38, align 8, !tbaa !18
  %40 = getelementptr inbounds nuw %struct.redisDb, ptr %39, i32 0, i32 7
  %41 = load i32, ptr %40, align 8, !tbaa !55
  call void @notifyKeyspaceEvent(i32 noundef 8, ptr noundef @.str, ptr noundef %36, i32 noundef %41)
  %42 = load i64, ptr getelementptr inbounds nuw (%struct.redisServer, ptr @server, i32 0, i32 227), align 8, !tbaa !35
  %43 = add nsw i64 %42, 1
  store i64 %43, ptr getelementptr inbounds nuw (%struct.redisServer, ptr @server, i32 0, i32 227), align 8, !tbaa !35
  %44 = load ptr, ptr %2, align 8, !tbaa !5
  %45 = load ptr, ptr getelementptr inbounds nuw (%struct.sharedObjectsStruct, ptr @shared, i32 0, i32 61), align 8, !tbaa !57
  call void @rewriteClientCommandArgument(ptr noundef %44, i32 noundef 0, ptr noundef %45)
  br label %46

46:                                               ; preds = %7, %6
  ret void
}