; Function Attrs: nounwind uwtable
define dso_local void @getsetCommand(ptr noundef %0) local_unnamed_addr #0 {
  %2 = getelementptr inbounds nuw i8, ptr %0, i64 96
  %3 = load ptr, ptr %2, align 8, !tbaa !9
  %4 = getelementptr inbounds nuw i8, ptr %3, i64 8
  %5 = load ptr, ptr %4, align 8, !tbaa !29
  %6 = getelementptr inbounds nuw i8, ptr %0, i64 28
  %7 = load i32, ptr %6, align 4, !tbaa !30
  %8 = sext i32 %7 to i64
  %9 = getelementptr inbounds [4 x ptr], ptr getelementptr inbounds nuw (i8, ptr @shared, i64 64), i64 0, i64 %8
  %10 = load ptr, ptr %9, align 8, !tbaa !29
  %11 = tail call ptr @lookupKeyReadOrReply(ptr noundef %0, ptr noundef %5, ptr noundef %10) #11
  %12 = icmp eq ptr %11, null
  br i1 %12, label %16, label %13

13:                                               ; preds = %1
  %14 = tail call i32 @checkType(ptr noundef nonnull %0, ptr noundef nonnull %11, i32 noundef 0) #11
  %.not.i = icmp eq i32 %14, 0
  br i1 %.not.i, label %15, label %getGenericCommand.exit

15:                                               ; preds = %13
  tail call void @addReplyBulk(ptr noundef nonnull %0, ptr noundef nonnull %11) #11
  br label %16

16:                                               ; preds = %15, %1
  %17 = load ptr, ptr %2, align 8, !tbaa !9
  %18 = getelementptr inbounds nuw i8, ptr %17, i64 16
  %19 = load ptr, ptr %18, align 8, !tbaa !29
  %20 = tail call ptr @tryObjectEncoding(ptr noundef %19) #11
  %21 = load ptr, ptr %2, align 8, !tbaa !9
  %22 = getelementptr inbounds nuw i8, ptr %21, i64 16
  store ptr %20, ptr %22, align 8, !tbaa !29
  %23 = getelementptr inbounds nuw i8, ptr %0, i64 32
  %24 = load ptr, ptr %23, align 8, !tbaa !32
  %25 = getelementptr inbounds nuw i8, ptr %21, i64 8
  %26 = load ptr, ptr %25, align 8, !tbaa !29
  tail call void @setKey(ptr noundef nonnull %0, ptr noundef %24, ptr noundef %26, ptr noundef %20, i32 noundef 0) #11
  %27 = load ptr, ptr %2, align 8, !tbaa !9
  %28 = getelementptr inbounds nuw i8, ptr %27, i64 8
  %29 = load ptr, ptr %28, align 8, !tbaa !29
  %30 = load ptr, ptr %23, align 8, !tbaa !32
  %31 = getelementptr inbounds nuw i8, ptr %30, i64 56
  %32 = load i32, ptr %31, align 8, !tbaa !54
  tail call void @notifyKeyspaceEvent(i32 noundef 8, ptr noundef nonnull @.str, ptr noundef %29, i32 noundef %32) #11
  %33 = load i64, ptr getelementptr inbounds nuw (i8, ptr @server, i64 6720), align 8, !tbaa !33
  %34 = add nsw i64 %33, 1
  store i64 %34, ptr getelementptr inbounds nuw (i8, ptr @server, i64 6720), align 8, !tbaa !33
  %35 = load ptr, ptr getelementptr inbounds nuw (i8, ptr @shared, i64 584), align 8, !tbaa !56
  tail call void @rewriteClientCommandArgument(ptr noundef nonnull %0, i32 noundef 0, ptr noundef %35) #11
  br label %getGenericCommand.exit

getGenericCommand.exit:                           ; preds = %13, %16
  ret void
}